target datalayout = "e-m:e-p270:32:32-p271:32:32-p272:64:64-i64:64-i128:128-f80:128-n8:16:32:64-S128"
target triple = "x86_64-pc-linux-gnu"

%struct.AVFormatContext = type { ptr, ptr, ptr, ptr, ptr, i32, i32, ptr, i32, ptr, i32, ptr, ptr, i64, i64, i64, i32, i32, i32, i64, i64, ptr, i32, i32, ptr, i32, i32, i32, i32, ptr, i64, i32, i32, %struct.AVIOInterruptCB, i32, i32, i32, i32, i64, i32, i32, i32, i32, i32, i32, i32, i32, i32, i32, i32, i32, i64, i32, i32, i32, i32, i32, ptr, ptr, ptr, ptr, i32, ptr, ptr, ptr, ptr, i32, ptr, ptr, i64, ptr, ptr, ptr, i64 }
%struct.AVIOInterruptCB = type { ptr, ptr }
%struct.AVStream = type { ptr, i32, i32, ptr, ptr, %struct.AVRational, i64, i64, i64, i32, i32, %struct.AVRational, ptr, %struct.AVRational, %struct.AVPacket, i32, %struct.AVRational, i32 }
%struct.AVPacket = type { ptr, i64, i64, ptr, i32, i32, i32, ptr, i32, i64, i64, ptr, ptr, %struct.AVRational }
%struct.AVRational = type { i32, i32 }
%struct.APNGMuxContext = type { ptr, i32, %struct.AVRational, i64, i32, ptr, %struct.AVRational, i32, ptr, i32 }
%struct.AVCodecParameters = type { i32, i32, i32, ptr, i32, ptr, i32, i32, i64, i32, i32, i32, i32, i32, i32, %struct.AVRational, %struct.AVRational, i32, i32, i32, i32, i32, i32, i32, %struct.AVChannelLayout, i32, i32, i32, i32, i32, i32 }
%struct.AVChannelLayout = type { i32, i32, %union.anon.0, ptr }
%union.anon.0 = type { i64 }

@.str.10 = private unnamed_addr constant [58 x i8] c"Last frame delay is too precise. Reducing to %d/%d (%f).\0A\00", align 1

; Function Attrs: nounwind uwtable
define internal i32 @apng_write_header(ptr noundef %0) #0 {
  %2 = alloca i32, align 4
  %3 = alloca ptr, align 8
  %4 = alloca ptr, align 8
  %5 = alloca ptr, align 8
  %6 = alloca i32, align 4
  store ptr %0, ptr %3, align 8, !tbaa !4
  call void @llvm.lifetime.start.p0(i64 8, ptr %4) #8
  %7 = load ptr, ptr %3, align 8, !tbaa !4
  %8 = getelementptr inbounds nuw %struct.AVFormatContext, ptr %7, i32 0, i32 3
  %9 = load ptr, ptr %8, align 8, !tbaa !9
  store ptr %9, ptr %4, align 8, !tbaa !26
  call void @llvm.lifetime.start.p0(i64 8, ptr %5) #8
  %10 = load ptr, ptr %3, align 8, !tbaa !4
  %11 = getelementptr inbounds nuw %struct.AVFormatContext, ptr %10, i32 0, i32 7
  %12 = load ptr, ptr %11, align 8, !tbaa !28
  %13 = getelementptr inbounds ptr, ptr %12, i64 0
  %14 = load ptr, ptr %13, align 8, !tbaa !29
  %15 = getelementptr inbounds nuw %struct.AVStream, ptr %14, i32 0, i32 3
  %16 = load ptr, ptr %15, align 8, !tbaa !31
  store ptr %16, ptr %5, align 8, !tbaa !38
  %17 = load ptr, ptr %4, align 8, !tbaa !26
  %18 = getelementptr inbounds nuw %struct.APNGMuxContext, ptr %17, i32 0, i32 2
  %19 = getelementptr inbounds nuw %struct.AVRational, ptr %18, i32 0, i32 0
  %20 = load i32, ptr %19, align 4, !tbaa !39
  %21 = icmp sgt i32 %20, 65535
  br i1 %21, label %28, label %22

22:                                               ; preds = %1
  %23 = load ptr, ptr %4, align 8, !tbaa !26
  %24 = getelementptr inbounds nuw %struct.APNGMuxContext, ptr %23, i32 0, i32 2
  %25 = getelementptr inbounds nuw %struct.AVRational, ptr %24, i32 0, i32 1
  %26 = load i32, ptr %25, align 4, !tbaa !42
  %27 = icmp sgt i32 %26, 65535
  br i1 %27, label %28, label %66

28:                                               ; preds = %22, %1
  %29 = load ptr, ptr %4, align 8, !tbaa !26
  %30 = getelementptr inbounds nuw %struct.APNGMuxContext, ptr %29, i32 0, i32 2
  %31 = getelementptr inbounds nuw %struct.AVRational, ptr %30, i32 0, i32 0
  %32 = load ptr, ptr %4, align 8, !tbaa !26
  %33 = getelementptr inbounds nuw %struct.APNGMuxContext, ptr %32, i32 0, i32 2
  %34 = getelementptr inbounds nuw %struct.AVRational, ptr %33, i32 0, i32 1
  %35 = load ptr, ptr %4, align 8, !tbaa !26
  %36 = getelementptr inbounds nuw %struct.APNGMuxContext, ptr %35, i32 0, i32 2
  %37 = getelementptr inbounds nuw %struct.AVRational, ptr %36, i32 0, i32 0
  %38 = load i32, ptr %37, align 4, !tbaa !39
  %39 = sext i32 %38 to i64
  %40 = load ptr, ptr %4, align 8, !tbaa !26
  %41 = getelementptr inbounds nuw %struct.APNGMuxContext, ptr %40, i32 0, i32 2
  %42 = getelementptr inbounds nuw %struct.AVRational, ptr %41, i32 0, i32 1
  %43 = load i32, ptr %42, align 4, !tbaa !42
  %44 = sext i32 %43 to i64
  %45 = call i32 @av_reduce(ptr noundef %31, ptr noundef %34, i64 noundef %39, i64 noundef %44, i64 noundef 65535)
  %46 = load ptr, ptr %3, align 8, !tbaa !4
  %47 = load ptr, ptr %4, align 8, !tbaa !26
  %48 = getelementptr inbounds nuw %struct.APNGMuxContext, ptr %47, i32 0, i32 2
  %49 = getelementptr inbounds nuw %struct.AVRational, ptr %48, i32 0, i32 0
  %50 = load i32, ptr %49, align 4, !tbaa !39
  %51 = load ptr, ptr %4, align 8, !tbaa !26
  %52 = getelementptr inbounds nuw %struct.APNGMuxContext, ptr %51, i32 0, i32 2
  %53 = getelementptr inbounds nuw %struct.AVRational, ptr %52, i32 0, i32 1
  %54 = load i32, ptr %53, align 4, !tbaa !42
  %55 = load ptr, ptr %4, align 8, !tbaa !26
  %56 = getelementptr inbounds nuw %struct.APNGMuxContext, ptr %55, i32 0, i32 2
  %57 = getelementptr inbounds nuw %struct.AVRational, ptr %56, i32 0, i32 0
  %58 = load i32, ptr %57, align 4, !tbaa !39
  %59 = sitofp i32 %58 to double
  %60 = load ptr, ptr %4, align 8, !tbaa !26
  %61 = getelementptr inbounds nuw %struct.APNGMuxContext, ptr %60, i32 0, i32 2
  %62 = getelementptr inbounds nuw %struct.AVRational, ptr %61, i32 0, i32 1
  %63 = load i32, ptr %62, align 4, !tbaa !42
  %64 = sitofp i32 %63 to double
  %65 = fdiv nsz double %59, %64
  call void (ptr, i32, ptr, ...) @av_log(ptr noundef %46, i32 noundef 24, ptr noundef @.str.10, i32 noundef %50, i32 noundef %54, double noundef %65)
  br label %66

66:                                               ; preds = %28, %22
  %67 = load ptr, ptr %3, align 8, !tbaa !4
  %68 = getelementptr inbounds nuw %struct.AVFormatContext, ptr %67, i32 0, i32 4
  %69 = load ptr, ptr %68, align 8, !tbaa !43
  call void @avio_wb64(ptr noundef %69, i64 noundef -8552249625308161526)
  %70 = load ptr, ptr %5, align 8, !tbaa !38
  %71 = getelementptr inbounds nuw %struct.AVCodecParameters, ptr %70, i32 0, i32 4
  %72 = load i32, ptr %71, align 8, !tbaa !44
  %73 = icmp ne i32 %72, 0
  br i1 %73, label %74, label %104

74:                                               ; preds = %66
  %75 = load ptr, ptr %5, align 8, !tbaa !38
  %76 = getelementptr inbounds nuw %struct.AVCodecParameters, ptr %75, i32 0, i32 4
  %77 = load i32, ptr %76, align 8, !tbaa !44
  %78 = add nsw i32 %77, 64
  %79 = sext i32 %78 to i64
  %80 = call noalias ptr @av_mallocz(i64 noundef %79)
  %81 = load ptr, ptr %4, align 8, !tbaa !26
  %82 = getelementptr inbounds nuw %struct.APNGMuxContext, ptr %81, i32 0, i32 8
  store ptr %80, ptr %82, align 8, !tbaa !47
  %83 = load ptr, ptr %4, align 8, !tbaa !26
  %84 = getelementptr inbounds nuw %struct.APNGMuxContext, ptr %83, i32 0, i32 8
  %85 = load ptr, ptr %84, align 8, !tbaa !47
  %86 = icmp ne ptr %85, null
  br i1 %86, label %88, label %87

87:                                               ; preds = %74
  store i32 -12, ptr %2, align 4
  store i32 1, ptr %6, align 4
  br label %105

88:                                               ; preds = %74
  %89 = load ptr, ptr %5, align 8, !tbaa !38
  %90 = getelementptr inbounds nuw %struct.AVCodecParameters, ptr %89, i32 0, i32 4
  %91 = load i32, ptr %90, align 8, !tbaa !44
  %92 = load ptr, ptr %4, align 8, !tbaa !26
  %93 = getelementptr inbounds nuw %struct.APNGMuxContext, ptr %92, i32 0, i32 9
  store i32 %91, ptr %93, align 8, !tbaa !48
  %94 = load ptr, ptr %4, align 8, !tbaa !26
  %95 = getelementptr inbounds nuw %struct.APNGMuxContext, ptr %94, i32 0, i32 8
  %96 = load ptr, ptr %95, align 8, !tbaa !47
  %97 = load ptr, ptr %5, align 8, !tbaa !38
  %98 = getelementptr inbounds nuw %struct.AVCodecParameters, ptr %97, i32 0, i32 3
  %99 = load ptr, ptr %98, align 8, !tbaa !49
  %100 = load ptr, ptr %5, align 8, !tbaa !38
  %101 = getelementptr inbounds nuw %struct.AVCodecParameters, ptr %100, i32 0, i32 4
  %102 = load i32, ptr %101, align 8, !tbaa !44
  %103 = sext i32 %102 to i64
  call void @llvm.memcpy.p0.p0.i64(ptr align 1 %96, ptr align 1 %99, i64 %103, i1 false)
  br label %104

104:                                              ; preds = %88, %66
  store i32 0, ptr %2, align 4
  store i32 1, ptr %6, align 4
  br label %105

105:                                              ; preds = %104, %87
  call void @llvm.lifetime.end.p0(i64 8, ptr %5) #8
  call void @llvm.lifetime.end.p0(i64 8, ptr %4) #8
  %106 = load i32, ptr %2, align 4
  ret i32 %106
}