; Function Attrs: nounwind uwtable
define internal range(i32 -12, 1) i32 @apng_write_header(ptr noundef %0) #0 {
  %2 = getelementptr inbounds nuw i8, ptr %0, i64 24
  %3 = load ptr, ptr %2, align 8, !tbaa !4
  %4 = getelementptr inbounds nuw i8, ptr %0, i64 48
  %5 = load ptr, ptr %4, align 8, !tbaa !24
  %6 = load ptr, ptr %5, align 8, !tbaa !25
  %7 = getelementptr inbounds nuw i8, ptr %6, i64 16
  %8 = load ptr, ptr %7, align 8, !tbaa !27
  %9 = getelementptr inbounds nuw i8, ptr %3, i64 12
  %10 = load i32, ptr %9, align 4, !tbaa !34
  %11 = icmp sgt i32 %10, 65535
  %.phi.trans.insert = getelementptr inbounds nuw i8, ptr %3, i64 16
  %.pre = load i32, ptr %.phi.trans.insert, align 4, !tbaa !37
  %12 = icmp sgt i32 %.pre, 65535
  %or.cond = select i1 %11, i1 true, i1 %12
  br i1 %or.cond, label %._crit_edge, label %22

._crit_edge:                                      ; preds = %1
  %13 = getelementptr inbounds nuw i8, ptr %3, i64 16
  %14 = sext i32 %10 to i64
  %15 = sext i32 %.pre to i64
  %16 = tail call i32 @av_reduce(ptr noundef nonnull %9, ptr noundef nonnull %13, i64 noundef %14, i64 noundef %15, i64 noundef 65535) #7
  %17 = load i32, ptr %9, align 4, !tbaa !34
  %18 = load i32, ptr %13, align 4, !tbaa !37
  %19 = sitofp i32 %17 to double
  %20 = sitofp i32 %18 to double
  %21 = fdiv nsz double %19, %20
  tail call void (ptr, i32, ptr, ...) @av_log(ptr noundef nonnull %0, i32 noundef 24, ptr noundef nonnull @.str.10, i32 noundef %17, i32 noundef %18, double noundef %21) #7
  br label %22

22:                                               ; preds = %1, %._crit_edge
  %23 = getelementptr inbounds nuw i8, ptr %0, i64 32
  %24 = load ptr, ptr %23, align 8, !tbaa !38
  tail call void @avio_wb64(ptr noundef %24, i64 noundef -8552249625308161526) #7
  %25 = getelementptr inbounds nuw i8, ptr %8, i64 24
  %26 = load i32, ptr %25, align 8, !tbaa !39
  %.not = icmp eq i32 %26, 0
  br i1 %.not, label %38, label %27

27:                                               ; preds = %22
  %28 = add nsw i32 %26, 64
  %29 = sext i32 %28 to i64
  %30 = tail call noalias ptr @av_mallocz(i64 noundef %29) #7
  %31 = getelementptr inbounds nuw i8, ptr %3, i64 64
  store ptr %30, ptr %31, align 8, !tbaa !42
  %.not24 = icmp eq ptr %30, null
  br i1 %.not24, label %38, label %32

32:                                               ; preds = %27
  %33 = load i32, ptr %25, align 8, !tbaa !39
  %34 = getelementptr inbounds nuw i8, ptr %3, i64 72
  store i32 %33, ptr %34, align 8, !tbaa !43
  %35 = getelementptr inbounds nuw i8, ptr %8, i64 16
  %36 = load ptr, ptr %35, align 8, !tbaa !44
  %37 = sext i32 %33 to i64
  tail call void @llvm.memcpy.p0.p0.i64(ptr nonnull align 1 %30, ptr align 1 %36, i64 %37, i1 false)
  br label %38

38:                                               ; preds = %22, %32, %27
  %.0 = phi i32 [ -12, %27 ], [ 0, %32 ], [ 0, %22 ]
  ret i32 %.0
}